; Function Attrs: nounwind uwtable
define dso_local void @ExecReScanProjectSet(ptr noundef captures(none) initializes((220, 221)) %0) local_unnamed_addr #0 {
  %2 = getelementptr inbounds nuw i8, ptr %0, i64 72
  %3 = load ptr, ptr %2, align 8
  %4 = getelementptr inbounds nuw i8, ptr %0, i64 220
  store i8 0, ptr %4, align 4
  %5 = getelementptr inbounds nuw i8, ptr %3, i64 104
  %6 = load ptr, ptr %5, align 8
  %7 = icmp eq ptr %6, null
  br i1 %7, label %8, label %9

8:                                                ; preds = %1
  tail call void @ExecReScan(ptr noundef nonnull %3) #2
  br label %9

9:                                                ; preds = %8, %1
  ret void
}